; Function Attrs: nounwind uwtable
define internal noundef zeroext i1 @on_error_rollback_hook(ptr noundef %0) #0 {
  %2 = alloca i8, align 1
  %3 = tail call i32 @pg_strcasecmp(ptr noundef %0, ptr noundef nonnull @.str.121) #15
  %4 = icmp eq i32 %3, 0
  br i1 %4, label %5, label %6

5:                                                ; preds = %1
  store i32 1, ptr getelementptr inbounds nuw (i8, ptr @pset, i64 428), align 4
  br label %12

6:                                                ; preds = %1
  call void @llvm.lifetime.start.p0(i64 1, ptr nonnull %2) #15
  %7 = call zeroext i1 @ParseVariableBool(ptr noundef %0, ptr noundef null, ptr noundef nonnull %2) #15
  br i1 %7, label %.thread, label %11

.thread:                                          ; preds = %6
  %8 = load i8, ptr %2, align 1, !range !6, !noundef !7
  %9 = trunc nuw i8 %8 to i1
  %10 = select i1 %9, i32 2, i32 0
  store i32 %10, ptr getelementptr inbounds nuw (i8, ptr @pset, i64 428), align 4
  call void @llvm.lifetime.end.p0(i64 1, ptr nonnull %2) #15
  br label %12

11:                                               ; preds = %6
  call void @PsqlVarEnumError(ptr noundef nonnull @.str.105, ptr noundef %0, ptr noundef nonnull @.str.122) #15
  call void @llvm.lifetime.end.p0(i64 1, ptr nonnull %2) #15
  br label %12

12:                                               ; preds = %5, %.thread, %11
  %.1 = phi i1 [ false, %11 ], [ true, %.thread ], [ true, %5 ]
  ret i1 %.1
}